; Function Attrs: mustprogress nounwind uwtable
define dso_local void @_ZNSt3__19strstreamD1Ev(ptr noundef nonnull align 8 dereferenceable(120) initializes((0, 8), (16, 32), (120, 128)) %0) unnamed_addr #0 align 2 personality ptr @__gxx_personality_v0 {
  store ptr getelementptr inbounds nuw inrange(-24, 16) (i8, ptr @_ZTVNSt3__19strstreamE, i64 24), ptr %0, align 8, !tbaa !4
  %2 = getelementptr inbounds nuw i8, ptr %0, i64 120
  store ptr getelementptr inbounds nuw inrange(-24, 16) (i8, ptr @_ZTVNSt3__19strstreamE, i64 104), ptr %2, align 8, !tbaa !4
  %3 = getelementptr inbounds nuw i8, ptr %0, i64 16
  store ptr getelementptr inbounds nuw inrange(-24, 16) (i8, ptr @_ZTVNSt3__19strstreamE, i64 64), ptr %3, align 8, !tbaa !4
  %4 = getelementptr inbounds nuw i8, ptr %0, i64 24
  store ptr getelementptr inbounds nuw inrange(-16, 112) (i8, ptr @_ZTVNSt3__112strstreambufE, i64 16), ptr %4, align 8, !tbaa !4
  %5 = getelementptr inbounds nuw i8, ptr %0, i64 40
  %6 = load ptr, ptr %5, align 8, !tbaa !23
  %.not.i.i = icmp eq ptr %6, null
  br i1 %.not.i.i, label %_ZNSt3__19strstreamD2Ev.exit, label %7

7:                                                ; preds = %1
  %8 = getelementptr inbounds nuw i8, ptr %0, i64 88
  %9 = load i32, ptr %8, align 8, !tbaa !7
  %10 = and i32 %9, 9
  %or.cond.i.i = icmp eq i32 %10, 1
  br i1 %or.cond.i.i, label %11, label %_ZNSt3__19strstreamD2Ev.exit

11:                                               ; preds = %7
  %12 = getelementptr inbounds nuw i8, ptr %0, i64 112
  %13 = load ptr, ptr %12, align 8, !tbaa !19
  %.not3.i.i = icmp eq ptr %13, null
  br i1 %.not3.i.i, label %15, label %14

14:                                               ; preds = %11
  invoke void %13(ptr noundef nonnull %6)
          to label %_ZNSt3__19strstreamD2Ev.exit unwind label %16

15:                                               ; preds = %11
  tail call void @_ZdaPv(ptr noundef nonnull %6) #20
  br label %_ZNSt3__19strstreamD2Ev.exit

16:                                               ; preds = %14
  %17 = landingpad { ptr, i32 }
          catch ptr null
  %18 = extractvalue { ptr, i32 } %17, 0
  tail call void @__clang_call_terminate(ptr %18) #21
  unreachable

_ZNSt3__19strstreamD2Ev.exit:                     ; preds = %1, %7, %14, %15
  store ptr getelementptr inbounds nuw inrange(-16, 112) (i8, ptr @_ZTVNSt3__115basic_streambufIcNS_11char_traitsIcEEEE, i64 16), ptr %4, align 8, !tbaa !4
  %19 = getelementptr inbounds nuw i8, ptr %0, i64 32
  tail call void @_ZNSt3__16localeD1Ev(ptr noundef nonnull align 8 dereferenceable(8) %19) #18
  tail call void @_ZNSt3__114basic_iostreamIcNS_11char_traitsIcEEED2Ev(ptr noundef nonnull align 8 dereferenceable(120) %0, ptr noundef nonnull getelementptr inbounds nuw (i8, ptr @_ZTTNSt3__19strstreamE, i64 8)) #18
  tail call void @_ZNSt3__19basic_iosIcNS_11char_traitsIcEEED2Ev(ptr noundef nonnull align 8 dereferenceable(148) %2) #18
  ret void
}